; Function Attrs: mustprogress uwtable
define void @_ZN6colvar4rmsd19calc_force_invgradsEv(ptr noundef nonnull align 8 captures(none) dereferenceable(1656) %0) unnamed_addr #2 align 2 {
  %2 = getelementptr inbounds nuw i8, ptr %0, i64 1608
  %3 = load ptr, ptr %2, align 8, !tbaa !457
  tail call void @_ZN12colvarmodule10atom_group17read_total_forcesEv(ptr noundef nonnull align 8 dereferenceable(1496) %3)
  %4 = load ptr, ptr %2, align 8, !tbaa !457
  %5 = getelementptr inbounds nuw i8, ptr %4, i64 504
  %6 = getelementptr inbounds nuw i8, ptr %4, i64 512
  %7 = load ptr, ptr %6, align 8, !tbaa !264
  %8 = load ptr, ptr %5, align 8, !tbaa !265
  %9 = ptrtoint ptr %7 to i64
  %10 = ptrtoint ptr %8 to i64
  %11 = sub i64 %9, %10
  %12 = sdiv exact i64 %11, 120
  %.not = icmp eq ptr %7, %8
  br i1 %.not, label %._crit_edge, label %.lr.ph.preheader

.lr.ph.preheader:                                 ; preds = %1
  %umax = tail call i64 @llvm.umax.i64(i64 %12, i64 1)
  br label %.lr.ph

._crit_edge:                                      ; preds = %.lr.ph, %1
  %13 = phi double [ 0.000000e+00, %1 ], [ %34, %.lr.ph ]
  %14 = getelementptr inbounds nuw i8, ptr %0, i64 936
  %15 = uitofp i64 %12 to double
  %16 = fmul double %13, %15
  store double %16, ptr %14, align 8, !tbaa !114
  ret void

.lr.ph:                                           ; preds = %.lr.ph.preheader, %.lr.ph
  %.04 = phi i64 [ %35, %.lr.ph ], [ 0, %.lr.ph.preheader ]
  %17 = phi double [ %34, %.lr.ph ], [ 0.000000e+00, %.lr.ph.preheader ]
  %18 = getelementptr inbounds nuw %"class.colvarmodule::atom", ptr %8, i64 %.04
  %19 = getelementptr inbounds nuw i8, ptr %18, i64 96
  %20 = getelementptr inbounds nuw i8, ptr %18, i64 72
  %21 = load double, ptr %19, align 8, !tbaa !95
  %22 = load double, ptr %20, align 8, !tbaa !95
  %23 = getelementptr inbounds nuw i8, ptr %18, i64 104
  %24 = load double, ptr %23, align 8, !tbaa !96
  %25 = getelementptr inbounds nuw i8, ptr %18, i64 80
  %26 = load double, ptr %25, align 8, !tbaa !96
  %27 = fmul double %24, %26
  %28 = tail call double @llvm.fmuladd.f64(double %21, double %22, double %27)
  %29 = getelementptr inbounds nuw i8, ptr %18, i64 112
  %30 = load double, ptr %29, align 8, !tbaa !97
  %31 = getelementptr inbounds nuw i8, ptr %18, i64 88
  %32 = load double, ptr %31, align 8, !tbaa !97
  %33 = tail call noundef double @llvm.fmuladd.f64(double %30, double %32, double %28)
  %34 = fadd double %17, %33
  %35 = add nuw i64 %.04, 1
  %exitcond.not = icmp eq i64 %35, %umax
  br i1 %exitcond.not, label %._crit_edge, label %.lr.ph, !llvm.loop !496
}